target datalayout = "e-m:e-p270:32:32-p271:32:32-p272:64:64-i64:64-i128:128-f80:128-n8:16:32:64-S128"
target triple = "x86_64-unknown-linux-gnu"

%"class.pugi::xml_node" = type { ptr }
%"class.pugi::xml_attribute" = type { ptr }
%"class.pugi::xml_attribute_iterator" = type { %"class.pugi::xml_attribute", %"class.pugi::xml_node" }

; Function Attrs: mustprogress nounwind uwtable
define noundef zeroext i1 @_ZNK4pugi22xml_attribute_iteratoreqERKS0_(ptr noundef nonnull align 8 dereferenceable(16) %this, ptr noundef nonnull align 8 dereferenceable(16) %rhs) #0 align 2 {
entry:
  %this.addr = alloca ptr, align 8
  %rhs.addr = alloca ptr, align 8
  store ptr %this, ptr %this.addr, align 8
  store ptr %rhs, ptr %rhs.addr, align 8
  %this1 = load ptr, ptr %this.addr, align 8
  %_wrap = getelementptr inbounds %"class.pugi::xml_attribute_iterator", ptr %this1, i32 0, i32 0
  %_attr = getelementptr inbounds %"class.pugi::xml_attribute", ptr %_wrap, i32 0, i32 0
  %0 = load ptr, ptr %_attr, align 8
  %1 = load ptr, ptr %rhs.addr, align 8
  %_wrap2 = getelementptr inbounds %"class.pugi::xml_attribute_iterator", ptr %1, i32 0, i32 0
  %_attr3 = getelementptr inbounds %"class.pugi::xml_attribute", ptr %_wrap2, i32 0, i32 0
  %2 = load ptr, ptr %_attr3, align 8
  %cmp = icmp eq ptr %0, %2
  br i1 %cmp, label %land.rhs, label %land.end

land.rhs:                                         ; preds = %entry
  %_parent = getelementptr inbounds %"class.pugi::xml_attribute_iterator", ptr %this1, i32 0, i32 1
  %_root = getelementptr inbounds %"class.pugi::xml_node", ptr %_parent, i32 0, i32 0
  %3 = load ptr, ptr %_root, align 8
  %4 = load ptr, ptr %rhs.addr, align 8
  %_parent4 = getelementptr inbounds %"class.pugi::xml_attribute_iterator", ptr %4, i32 0, i32 1
  %_root5 = getelementptr inbounds %"class.pugi::xml_node", ptr %_parent4, i32 0, i32 0
  %5 = load ptr, ptr %_root5, align 8
  %cmp6 = icmp eq ptr %3, %5
  br label %land.end

land.end:                                         ; preds = %land.rhs, %entry
  %6 = phi i1 [ false, %entry ], [ %cmp6, %land.rhs ]
  ret i1 %6
}