; Function Attrs: mustprogress nofree norecurse nosync nounwind willreturn memory(argmem: read) uwtable
define noundef zeroext i1 @_ZNK4pugi22xml_attribute_iteratoreqERKS0_(ptr nocapture noundef nonnull readonly align 8 dereferenceable(16) %this, ptr nocapture noundef nonnull readonly align 8 dereferenceable(16) %rhs) local_unnamed_addr #8 align 2 {
entry:
  %0 = load <2 x ptr>, ptr %this, align 8
  %1 = load <2 x ptr>, ptr %rhs, align 8
  %2 = icmp eq <2 x ptr> %0, %1
  %3 = extractelement <2 x i1> %2, i64 0
  %4 = extractelement <2 x i1> %2, i64 1
  %5 = select i1 %3, i1 %4, i1 false
  ret i1 %5
}